; Function Attrs: null_pointer_is_valid sspstrong uwtable
define i32 @prefs_modules_foreach(ptr noundef %0, ptr noundef %1) local_unnamed_addr #1 {
  %3 = alloca %struct.call_foreach_t, align 8
  %4 = load ptr, ptr @prefs_modules, align 8
  call void @llvm.lifetime.start.p0(i64 24, ptr nonnull %3) #25
  %5 = icmp eq ptr %4, null
  %6 = load ptr, ptr @prefs_top_level_modules, align 8
  %spec.select.i = select i1 %5, ptr %6, ptr %4
  store ptr %0, ptr %3, align 8
  %7 = getelementptr inbounds nuw i8, ptr %3, i64 8
  store ptr %1, ptr %7, align 8
  %8 = getelementptr inbounds nuw i8, ptr %3, i64 16
  store i32 0, ptr %8, align 8
  %9 = getelementptr inbounds nuw i8, ptr %3, i64 20
  store i8 1, ptr %9, align 4
  %10 = call zeroext i1 @wmem_tree_foreach(ptr noundef %spec.select.i, ptr noundef nonnull @call_foreach_cb, ptr noundef nonnull %3)
  %11 = load i32, ptr %8, align 8
  call void @llvm.lifetime.end.p0(i64 24, ptr nonnull %3) #25
  ret i32 %11
}